ccopy_reg
_reconstructor
p1
(cmatplotlib.font_manager
FontManager
p2
c__builtin__
object
p3
NtRp4
(dp5
S'ttflist'
p6
(lp7
g1
(cmatplotlib.font_manager
FontEntry
p8
g3
NtRp9
(dp10
S'style'
p11
Vnormal
p12
sS'name'
p13
S'STIXSizeThreeSym'
p14
sS'weight'
p15
I700
sS'stretch'
p16
g12
sS'variant'
p17
g12
sS'fname'
p18
V/Users/gjreda/.virtualenvs/pydata/lib/python2.7/site-packages/matplotlib/mpl-data/fonts/ttf/STIXSizThreeSymBol.ttf
p19
sS'size'
p20
Vscalable
p21
sbag1
(g8
g3
NtRp22
(dp23
g11
g12
sg13
S'Bitstream Vera Serif'
p24
sg15
I700
sg16
g12
sg17
g12
sg18
V/Users/gjreda/.virtualenvs/pydata/lib/python2.7/site-packages/matplotlib/mpl-data/fonts/ttf/VeraSeBd.ttf
p25
sg20
g21
sbag1
(g8
g3
NtRp26
(dp27
g11
g12
sg13
S'cmmi10'
p28
sg15
I400
sg16
g12
sg17
g12
sg18
V/Users/gjreda/.virtualenvs/pydata/lib/python2.7/site-packages/matplotlib/mpl-data/fonts/ttf/cmmi10.ttf
p29
sg20
g21
sbag1
(g8
g3
NtRp30
(dp31
g11
g12
sg13
S'STIXGeneral'
p32
sg15
I400
sg16
g12
sg17
g12
sg18
V/Users/gjreda/.virtualenvs/pydata/lib/python2.7/site-packages/matplotlib/mpl-data/fonts/ttf/STIXGeneral.ttf
p33
sg20
g21
sbag1
(g8
g3
NtRp34
(dp35
g11
g12
sg13
S'STIXSizeTwoSym'
p36
sg15
I700
sg16
g12
sg17
g12
sg18
V/Users/gjreda/.virtualenvs/pydata/lib/python2.7/site-packages/matplotlib/mpl-data/fonts/ttf/STIXSizTwoSymBol.ttf
p37
sg20
g21
sbag1
(g8
g3
NtRp38
(dp39
g11
Vitalic
p40
sg13
S'STIXGeneral'
p41
sg15
I400
sg16
g12
sg17
g12
sg18
V/Users/gjreda/.virtualenvs/pydata/lib/python2.7/site-packages/matplotlib/mpl-data/fonts/ttf/STIXGeneralItalic.ttf
p42
sg20
g21
sbag1
(g8
g3
NtRp43
(dp44
g11
g12
sg13
S'STIXSizeFiveSym'
p45
sg15
I400
sg16
g12
sg17
g12
sg18
V/Users/gjreda/.virtualenvs/pydata/lib/python2.7/site-packages/matplotlib/mpl-data/fonts/ttf/STIXSizFiveSymReg.ttf
p46
sg20
g21
sbag1
(g8
g3
NtRp47
(dp48
g11
g12
sg13
S'STIXSizeOneSym'
p49
sg15
I700
sg16
g12
sg17
g12
sg18
V/Users/gjreda/.virtualenvs/pydata/lib/python2.7/site-packages/matplotlib/mpl-data/fonts/ttf/STIXSizOneSymBol.ttf
p50
sg20
g21
sbag1
(g8
g3
NtRp51
(dp52
g11
g12
sg13
S'Bitstream Vera Sans Mono'
p53
sg15
I700
sg16
g12
sg17
g12
sg18
V/Users/gjreda/.virtualenvs/pydata/lib/python2.7/site-packages/matplotlib/mpl-data/fonts/ttf/VeraMoBd.ttf
p54
sg20
g21
sbag1
(g8
g3
NtRp55
(dp56
g11
Voblique
p57
sg13
S'Bitstream Vera Sans'
p58
sg15
I400
sg16
g12
sg17
g12
sg18
V/Users/gjreda/.virtualenvs/pydata/lib/python2.7/site-packages/matplotlib/mpl-data/fonts/ttf/VeraIt.ttf
p59
sg20
g21
sbag1
(g8
g3
NtRp60
(dp61
g11
g12
sg13
S'STIXNonUnicode'
p62
sg15
I700
sg16
g12
sg17
g12
sg18
V/Users/gjreda/.virtualenvs/pydata/lib/python2.7/site-packages/matplotlib/mpl-data/fonts/ttf/STIXNonUniBol.ttf
p63
sg20
g21
sbag1
(g8
g3
NtRp64
(dp65
g11
g40
sg13
S'STIXGeneral'
p66
sg15
I700
sg16
g12
sg17
g12
sg18
V/Users/gjreda/.virtualenvs/pydata/lib/python2.7/site-packages/matplotlib/mpl-data/fonts/ttf/STIXGeneralBolIta.ttf
p67
sg20
g21
sbag1
(g8
g3
NtRp68
(dp69
g11
g12
sg13
S'cmsy10'
p70
sg15
I400
sg16
g12
sg17
g12
sg18
V/Users/gjreda/.virtualenvs/pydata/lib/python2.7/site-packages/matplotlib/mpl-data/fonts/ttf/cmsy10.ttf
p71
sg20
g21
sbag1
(g8
g3
NtRp72
(dp73
g11
g12
sg13
S'STIXGeneral'
p74
sg15
I700
sg16
g12
sg17
g12
sg18
V/Users/gjreda/.virtualenvs/pydata/lib/python2.7/site-packages/matplotlib/mpl-data/fonts/ttf/STIXGeneralBol.ttf
p75
sg20
g21
sbag1
(g8
g3
NtRp76
(dp77
g11
g12
sg13
S'cmtt10'
p78
sg15
I400
sg16
g12
sg17
g12
sg18
V/Users/gjreda/.virtualenvs/pydata/lib/python2.7/site-packages/matplotlib/mpl-data/fonts/ttf/cmtt10.ttf
p79
sg20
g21
sbag1
(g8
g3
NtRp80
(dp81
g11
g12
sg13
S'STIXSizeTwoSym'
p82
sg15
I400
sg16
g12
sg17
g12
sg18
V/Users/gjreda/.virtualenvs/pydata/lib/python2.7/site-packages/matplotlib/mpl-data/fonts/ttf/STIXSizTwoSymReg.ttf
p83
sg20
g21
sbag1
(g8
g3
NtRp84
(dp85
g11
g12
sg13
S'cmss10'
p86
sg15
I400
sg16
g12
sg17
g12
sg18
V/Users/gjreda/.virtualenvs/pydata/lib/python2.7/site-packages/matplotlib/mpl-data/fonts/ttf/cmss10.ttf
p87
sg20
g21
sbag1
(g8
g3
NtRp88
(dp89
g11
g12
sg13
S'Bitstream Vera Serif'
p90
sg15
I400
sg16
g12
sg17
g12
sg18
V/Users/gjreda/.virtualenvs/pydata/lib/python2.7/site-packages/matplotlib/mpl-data/fonts/ttf/VeraSe.ttf
p91
sg20
g21
sbag1
(g8
g3
NtRp92
(dp93
g11
g12
sg13
S'Bitstream Vera Sans'
p94
sg15
I400
sg16
g12
sg17
g12
sg18
V/Users/gjreda/.virtualenvs/pydata/lib/python2.7/site-packages/matplotlib/mpl-data/fonts/ttf/Vera.ttf
p95
sg20
g21
sbag1
(g8
g3
NtRp96
(dp97
g11
g12
sg13
S'STIXSizeOneSym'
p98
sg15
I400
sg16
g12
sg17
g12
sg18
V/Users/gjreda/.virtualenvs/pydata/lib/python2.7/site-packages/matplotlib/mpl-data/fonts/ttf/STIXSizOneSymReg.ttf
p99
sg20
g21
sbag1
(g8
g3
NtRp100
(dp101
g11
g12
sg13
S'cmr10'
p102
sg15
I400
sg16
g12
sg17
g12
sg18
V/Users/gjreda/.virtualenvs/pydata/lib/python2.7/site-packages/matplotlib/mpl-data/fonts/ttf/cmr10.ttf
p103
sg20
g21
sbag1
(g8
g3
NtRp104
(dp105
g11
g12
sg13
S'STIXSizeThreeSym'
p106
sg15
I400
sg16
g12
sg17
g12
sg18
V/Users/gjreda/.virtualenvs/pydata/lib/python2.7/site-packages/matplotlib/mpl-data/fonts/ttf/STIXSizThreeSymReg.ttf
p107
sg20
g21
sbag1
(g8
g3
NtRp108
(dp109
g11
g12
sg13
S'STIXNonUnicode'
p110
sg15
I400
sg16
g12
sg17
g12
sg18
V/Users/gjreda/.virtualenvs/pydata/lib/python2.7/site-packages/matplotlib/mpl-data/fonts/ttf/STIXNonUni.ttf
p111
sg20
g21
sbag1
(g8
g3
NtRp112
(dp113
g11
g12
sg13
S'cmex10'
p114
sg15
I400
sg16
g12
sg17
g12
sg18
V/Users/gjreda/.virtualenvs/pydata/lib/python2.7/site-packages/matplotlib/mpl-data/fonts/ttf/cmex10.ttf
p115
sg20
g21
sbag1
(g8
g3
NtRp116
(dp117
g11
g57
sg13
S'Bitstream Vera Sans Mono'
p118
sg15
I400
sg16
g12
sg17
g12
sg18
V/Users/gjreda/.virtualenvs/pydata/lib/python2.7/site-packages/matplotlib/mpl-data/fonts/ttf/VeraMoIt.ttf
p119
sg20
g21
sbag1
(g8
g3
NtRp120
(dp121
g11
g12
sg13
S'Bitstream Vera Sans'
p122
sg15
I700
sg16
g12
sg17
g12
sg18
V/Users/gjreda/.virtualenvs/pydata/lib/python2.7/site-packages/matplotlib/mpl-data/fonts/ttf/VeraBd.ttf
p123
sg20
g21
sbag1
(g8
g3
NtRp124
(dp125
g11
g12
sg13
S'STIXSizeFourSym'
p126
sg15
I400
sg16
g12
sg17
g12
sg18
V/Users/gjreda/.virtualenvs/pydata/lib/python2.7/site-packages/matplotlib/mpl-data/fonts/ttf/STIXSizFourSymReg.ttf
p127
sg20
g21
sbag1
(g8
g3
NtRp128
(dp129
g11
g57
sg13
S'Bitstream Vera Sans'
p130
sg15
I700
sg16
g12
sg17
g12
sg18
V/Users/gjreda/.virtualenvs/pydata/lib/python2.7/site-packages/matplotlib/mpl-data/fonts/ttf/VeraBI.ttf
p131
sg20
g21
sbag1
(g8
g3
NtRp132
(dp133
g11
g40
sg13
S'STIXNonUnicode'
p134
sg15
I700
sg16
g12
sg17
g12
sg18
V/Users/gjreda/.virtualenvs/pydata/lib/python2.7/site-packages/matplotlib/mpl-data/fonts/ttf/STIXNonUniBolIta.ttf
p135
sg20
g21
sbag1
(g8
g3
NtRp136
(dp137
g11
g40
sg13
S'STIXNonUnicode'
p138
sg15
I400
sg16
g12
sg17
g12
sg18
V/Users/gjreda/.virtualenvs/pydata/lib/python2.7/site-packages/matplotlib/mpl-data/fonts/ttf/STIXNonUniIta.ttf
p139
sg20
g21
sbag1
(g8
g3
NtRp140
(dp141
g11
g57
sg13
S'Bitstream Vera Sans Mono'
p142
sg15
I700
sg16
g12
sg17
g12
sg18
V/Users/gjreda/.virtualenvs/pydata/lib/python2.7/site-packages/matplotlib/mpl-data/fonts/ttf/VeraMoBI.ttf
p143
sg20
g21
sbag1
(g8
g3
NtRp144
(dp145
g11
g12
sg13
S'cmb10'
p146
sg15
I400
sg16
g12
sg17
g12
sg18
V/Users/gjreda/.virtualenvs/pydata/lib/python2.7/site-packages/matplotlib/mpl-data/fonts/ttf/cmb10.ttf
p147
sg20
g21
sbag1
(g8
g3
NtRp148
(dp149
g11
g12
sg13
S'Bitstream Vera Sans Mono'
p150
sg15
I400
sg16
g12
sg17
g12
sg18
V/Users/gjreda/.virtualenvs/pydata/lib/python2.7/site-packages/matplotlib/mpl-data/fonts/ttf/VeraMono.ttf
p151
sg20
g21
sbag1
(g8
g3
NtRp152
(dp153
g11
g12
sg13
S'STIXSizeFourSym'
p154
sg15
I700
sg16
g12
sg17
g12
sg18
V/Users/gjreda/.virtualenvs/pydata/lib/python2.7/site-packages/matplotlib/mpl-data/fonts/ttf/STIXSizFourSymBol.ttf
p155
sg20
g21
sbag1
(g8
g3
NtRp156
(dp157
g11
g40
sg13
S'Trebuchet MS'
p158
sg15
I400
sg16
g12
sg17
g12
sg18
V/Library/Fonts/Trebuchet MS Italic.ttf
p159
sg20
g21
sbag1
(g8
g3
NtRp160
(dp161
g11
g12
sg13
S'Hoefler Text'
p162
sg15
I400
sg16
g12
sg17
g12
sg18
V/Library/Fonts/Hoefler Text Ornaments.ttf
p163
sg20
g21
sbag1
(g8
g3
NtRp164
(dp165
g11
g12
sg13
S'Mshtakan'
p166
sg15
I400
sg16
g12
sg17
g12
sg18
V/Library/Fonts/MshtakanRegular.ttf
p167
sg20
g21
sbag1
(g8
g3
NtRp168
(dp169
g11
g12
sg13
S'Osaka'
p170
sg15
I400
sg16
g12
sg17
g12
sg18
V/Library/Fonts/Osaka.ttf
p171
sg20
g21
sbag1
(g8
g3
NtRp172
(dp173
g11
g12
sg13
S'Hiragino Mincho Pro'
p174
sg15
I400
sg16
g12
sg17
g12
sg18
V/Library/Fonts/\u30d2\u30e9\u30ad\u3099\u30ce\u660e\u671d Pro W3.otf
p175
sg20
g21
sbag1
(g8
g3
NtRp176
(dp177
g11
g12
sg13
S'Verdana'
p178
sg15
I700
sg16
g12
sg17
g12
sg18
V/Library/Fonts/Verdana Bold.ttf
p179
sg20
g21
sbag1
(g8
g3
NtRp180
(dp181
g11
g12
sg13
S'Apple SD Gothic Neo'
p182
sg15
I200
sg16
g12
sg17
g12
sg18
V/Library/Fonts/AppleSDGothicNeo-UltraLight.otf
p183
sg20
g21
sbag1
(g8
g3
NtRp184
(dp185
g11
g12
sg13
S'Arial Unicode MS'
p186
sg15
I400
sg16
g12
sg17
g12
sg18
V/Library/Fonts/Arial Unicode.ttf
p187
sg20
g21
sbag1
(g8
g3
NtRp188
(dp189
g11
g12
sg13
S'STIXSizeThreeSym'
p190
sg15
I400
sg16
g12
sg17
g12
sg18
V/Library/Fonts/STIXSizThreeSymReg.otf
p191
sg20
g21
sbag1
(g8
g3
NtRp192
(dp193
g11
g12
sg13
S'DIN Condensed'
p194
sg15
I700
sg16
Vcondensed
p195
sg17
g12
sg18
V/Library/Fonts/DIN Condensed Bold.ttf
p196
sg20
g21
sbag1
(g8
g3
NtRp197
(dp198
g11
g12
sg13
S'Hiragino Mincho ProN'
p199
sg15
I400
sg16
g12
sg17
g12
sg18
V/System/Library/Fonts/\u30d2\u30e9\u30ad\u3099\u30ce\u660e\u671d ProN W3.otf
p200
sg20
g21
sbag1
(g8
g3
NtRp201
(dp202
g11
g12
sg13
S'Times New Roman'
p203
sg15
I500
sg16
g12
sg17
g12
sg18
V/Library/Fonts/Times New Roman.ttf
p204
sg20
g21
sbag1
(g8
g3
NtRp205
(dp206
g11
g12
sg13
S'LiSong Pro'
p207
sg15
I400
sg16
g12
sg17
g12
sg18
V/Library/Fonts/\u5137\u5b8b Pro.ttf
p208
sg20
g21
sbag1
(g8
g3
NtRp209
(dp210
g11
g12
sg13
S'Apple SD Gothic Neo'
p211
sg15
I800
sg16
g12
sg17
g12
sg18
V/Library/Fonts/AppleSDGothicNeo-Heavy.otf
p212
sg20
g21
sbag1
(g8
g3
NtRp213
(dp214
g11
g12
sg13
S'Arial'
p215
sg15
I400
sg16
g12
sg17
g12
sg18
V/Library/Fonts/Arial.ttf
p216
sg20
g21
sbag1
(g8
g3
NtRp217
(dp218
g11
g12
sg13
S'AppleGothic'
p219
sg15
I400
sg16
g12
sg17
g12
sg18
V/Library/Fonts/AppleGothic.ttf
p220
sg20
g21
sbag1
(g8
g3
NtRp221
(dp222
g11
g12
sg13
S'YuGothic'
p223
sg15
I400
sg16
g12
sg17
g12
sg18
V/Library/Fonts/Yu Gothic Medium.otf
p224
sg20
g21
sbag1
(g8
g3
NtRp225
(dp226
g11
g12
sg13
S'Gujarati MT'
p227
sg15
I700
sg16
g12
sg17
g12
sg18
V/Library/Fonts/GujaratiMTBold.ttf
p228
sg20
g21
sbag1
(g8
g3
NtRp229
(dp230
g11
g12
sg13
S'Arial Narrow'
p231
sg15
I400
sg16
g195
sg17
g12
sg18
V/Library/Fonts/Arial Narrow.ttf
p232
sg20
g21
sbag1
(g8
g3
NtRp233
(dp234
g11
g12
sg13
S'Apple SD Gothic Neo'
p235
sg15
I700
sg16
g12
sg17
g12
sg18
V/System/Library/Fonts/AppleSDGothicNeo-Bold.otf
p236
sg20
g21
sbag1
(g8
g3
NtRp237
(dp238
g11
g12
sg13
S'Hiragino Maru Gothic ProN'
p239
sg15
I400
sg16
g12
sg17
g12
sg18
V/Library/Fonts/\u30d2\u30e9\u30ad\u3099\u30ce\u4e38\u30b3\u3099 ProN W4.otf
p240
sg20
g21
sbag1
(g8
g3
NtRp241
(dp242
g11
g57
sg13
S'Mshtakan'
p243
sg15
I400
sg16
g12
sg17
g12
sg18
V/Library/Fonts/MshtakanOblique.ttf
p244
sg20
g21
sbag1
(g8
g3
NtRp245
(dp246
g11
g12
sg13
S'Hiragino Mincho Pro'
p247
sg15
I700
sg16
g12
sg17
g12
sg18
V/Library/Fonts/\u30d2\u30e9\u30ad\u3099\u30ce\u660e\u671d Pro W6.otf
p248
sg20
g21
sbag1
(g8
g3
NtRp249
(dp250
g11
g12
sg13
S'Hiragino Kaku Gothic Std'
p251
sg15
I700
sg16
g12
sg17
g12
sg18
V/Library/Fonts/\u30d2\u30e9\u30ad\u3099\u30ce\u89d2\u30b3\u3099 Std W8.otf
p252
sg20
g21
sbag1
(g8
g3
NtRp253
(dp254
g11
g12
sg13
S'AppleMyungjo'
p255
sg15
I400
sg16
g12
sg17
g12
sg18
V/Library/Fonts/AppleMyungjo.ttf
p256
sg20
g21
sbag1
(g8
g3
NtRp257
(dp258
g11
g12
sg13
S'Zapf Dingbats'
p259
sg15
I400
sg16
g12
sg17
g12
sg18
V/System/Library/Fonts/ZapfDingbats.ttf
p260
sg20
g21
sbag1
(g8
g3
NtRp261
(dp262
g11
g12
sg13
S'STIXIntegralsD'
p263
sg15
I700
sg16
g12
sg17
g12
sg18
V/Library/Fonts/STIXIntDBol.otf
p264
sg20
g21
sbag1
(g8
g3
NtRp265
(dp266
g11
g12
sg13
S'Apple LiSung'
p267
sg15
I200
sg16
g12
sg17
g12
sg18
V/Library/Fonts/Apple LiSung Light.ttf
p268
sg20
g21
sbag1
(g8
g3
NtRp269
(dp270
g11
g12
sg13
S'DIN Alternate'
p271
sg15
I700
sg16
g12
sg17
g12
sg18
V/Library/Fonts/DIN Alternate Bold.ttf
p272
sg20
g21
sbag1
(g8
g3
NtRp273
(dp274
g11
g12
sg13
S'Myanmar Sangam MN'
p275
sg15
I400
sg16
g12
sg17
g12
sg18
V/Library/Fonts/Myanmar Sangam MN.ttf
p276
sg20
g21
sbag1
(g8
g3
NtRp277
(dp278
g11
g12
sg13
S'STIXSizeThreeSym'
p279
sg15
I700
sg16
g12
sg17
g12
sg18
V/Library/Fonts/STIXSizThreeSymBol.otf
p280
sg20
g21
sbag1
(g8
g3
NtRp281
(dp282
g11
g12
sg13
S'Courier New'
p283
sg15
I400
sg16
g12
sg17
g12
sg18
V/Library/Fonts/Courier New.ttf
p284
sg20
g21
sbag1
(g8
g3
NtRp285
(dp286
g11
g40
sg13
S'Arial Narrow'
p287
sg15
I700
sg16
g195
sg17
g12
sg18
V/Library/Fonts/Arial Narrow Bold Italic.ttf
p288
sg20
g21
sbag1
(g8
g3
NtRp289
(dp290
g11
g12
sg13
S'Zapfino'
p291
sg15
I400
sg16
g12
sg17
g12
sg18
V/Library/Fonts/Zapfino.ttf
p292
sg20
g21
sbag1
(g8
g3
NtRp293
(dp294
g11
g12
sg13
S'Arial Narrow'
p295
sg15
I700
sg16
g195
sg17
g12
sg18
V/Library/Fonts/Arial Narrow Bold.ttf
p296
sg20
g21
sbag1
(g8
g3
NtRp297
(dp298
g11
g40
sg13
S'Times New Roman'
p299
sg15
I500
sg16
g12
sg17
g12
sg18
V/Library/Fonts/Times New Roman Italic.ttf
p300
sg20
g21
sbag1
(g8
g3
NtRp301
(dp302
g11
g12
sg13
S'Krungthep'
p303
sg15
I400
sg16
g12
sg17
g12
sg18
V/Library/Fonts/Krungthep.ttf
p304
sg20
g21
sbag1
(g8
g3
NtRp305
(dp306
g11
g12
sg13
S'Apple SD Gothic Neo'
p307
sg15
I700
sg16
g12
sg17
g12
sg18
V/Library/Fonts/AppleSDGothicNeo-ExtraBold.otf
p308
sg20
g21
sbag1
(g8
g3
NtRp309
(dp310
g11
g12
sg13
S'Georgia'
p311
sg15
I400
sg16
g12
sg17
g12
sg18
V/Library/Fonts/Georgia.ttf
p312
sg20
g21
sbag1
(g8
g3
NtRp313
(dp314
g11
g12
sg13
S'STIXIntegralsSm'
p315
sg15
I700
sg16
g12
sg17
g12
sg18
V/Library/Fonts/STIXIntSmBol.otf
p316
sg20
g21
sbag1
(g8
g3
NtRp317
(dp318
g11
g12
sg13
S'Hiragino Kaku Gothic ProN'
p319
sg15
I700
sg16
g12
sg17
g12
sg18
V/System/Library/Fonts/\u30d2\u30e9\u30ad\u3099\u30ce\u89d2\u30b3\u3099 ProN W6.otf
p320
sg20
g21
sbag1
(g8
g3
NtRp321
(dp322
g11
g12
sg13
S'Trebuchet MS'
p323
sg15
I700
sg16
g12
sg17
g12
sg18
V/Library/Fonts/Trebuchet MS Bold.ttf
p324
sg20
g21
sbag1
(g8
g3
NtRp325
(dp326
g11
g12
sg13
S'Apple Symbols'
p327
sg15
I400
sg16
g12
sg17
g12
sg18
V/System/Library/Fonts/Apple Symbols.ttf
p328
sg20
g21
sbag1
(g8
g3
NtRp329
(dp330
g11
g40
sg13
S'Times New Roman'
p331
sg15
I700
sg16
g12
sg17
g12
sg18
V/Library/Fonts/Times New Roman Bold Italic.ttf
p332
sg20
g21
sbag1
(g8
g3
NtRp333
(dp334
g11
g12
sg13
S'Webdings'
p335
sg15
I400
sg16
g12
sg17
g12
sg18
V/Library/Fonts/Webdings.ttf
p336
sg20
g21
sbag1
(g8
g3
NtRp337
(dp338
g11
g40
sg13
S'Arial Narrow'
p339
sg15
I400
sg16
g195
sg17
g12
sg18
V/Library/Fonts/Arial Narrow Italic.ttf
p340
sg20
g21
sbag1
(g8
g3
NtRp341
(dp342
g11
g12
sg13
S'Hiragino Kaku Gothic Pro'
p343
sg15
I700
sg16
g12
sg17
g12
sg18
V/Library/Fonts/\u30d2\u30e9\u30ad\u3099\u30ce\u89d2\u30b3\u3099 Pro W6.otf
p344
sg20
g21
sbag1
(g8
g3
NtRp345
(dp346
g11
g12
sg13
S'Hiragino Maru Gothic Pro'
p347
sg15
I400
sg16
g12
sg17
g12
sg18
V/Library/Fonts/\u30d2\u30e9\u30ad\u3099\u30ce\u4e38\u30b3\u3099 Pro W4.otf
p348
sg20
g21
sbag1
(g8
g3
NtRp349
(dp350
g11
g12
sg13
S'Apple SD Gothic Neo'
p351
sg15
I400
sg16
g12
sg17
g12
sg18
V/System/Library/Fonts/AppleSDGothicNeo-Regular.otf
p352
sg20
g21
sbag1
(g8
g3
NtRp353
(dp354
g11
g12
sg13
S'PilGi'
p355
sg15
I400
sg16
g12
sg17
g12
sg18
V/Library/Fonts/Pilgiche.ttf
p356
sg20
g21
sbag1
(g8
g3
NtRp357
(dp358
g11
g12
sg13
S'Apple Braille'
p359
sg15
I400
sg16
g12
sg17
g12
sg18
V/System/Library/Fonts/Apple Braille Outline 8 Dot.ttf
p360
sg20
g21
sbag1
(g8
g3
NtRp361
(dp362
g11
g12
sg13
S'Nadeem'
p363
sg15
I400
sg16
g12
sg17
g12
sg18
V/Library/Fonts/Nadeem.ttf
p364
sg20
g21
sbag1
(g8
g3
NtRp365
(dp366
g11
g12
sg13
S'Plantagenet Cherokee'
p367
sg15
I400
sg16
g12
sg17
g12
sg18
V/Library/Fonts/PlantagenetCherokee.ttf
p368
sg20
g21
sbag1
(g8
g3
NtRp369
(dp370
g11
g12
sg13
S'Times New Roman'
p371
sg15
I700
sg16
g12
sg17
g12
sg18
V/Library/Fonts/Times New Roman Bold.ttf
p372
sg20
g21
sbag1
(g8
g3
NtRp373
(dp374
g11
g12
sg13
S'BiauKai'
p375
sg15
I400
sg16
g12
sg17
g12
sg18
V/Library/Fonts/BiauKai.ttf
p376
sg20
g21
sbag1
(g8
g3
NtRp377
(dp378
g11
g40
sg13
S'Arial'
p379
sg15
I700
sg16
g12
sg17
g12
sg18
V/Library/Fonts/Arial Bold Italic.ttf
p380
sg20
g21
sbag1
(g8
g3
NtRp381
(dp382
g11
g12
sg13
S'Hiragino Kaku Gothic Pro'
p383
sg15
I400
sg16
g12
sg17
g12
sg18
V/Library/Fonts/\u30d2\u30e9\u30ad\u3099\u30ce\u89d2\u30b3\u3099 Pro W3.otf
p384
sg20
g21
sbag1
(g8
g3
NtRp385
(dp386
g11
g12
sg13
S'STIXVariants'
p387
sg15
I400
sg16
g12
sg17
g12
sg18
V/Library/Fonts/STIXVar.otf
p388
sg20
g21
sbag1
(g8
g3
NtRp389
(dp390
g11
g12
sg13
S'STIXVariants'
p391
sg15
I700
sg16
g12
sg17
g12
sg18
V/Library/Fonts/STIXVarBol.otf
p392
sg20
g21
sbag1
(g8
g3
NtRp393
(dp394
g11
g12
sg13
S'Hiragino Sans GB'
p395
sg15
I400
sg16
g12
sg17
g12
sg18
V/Library/Fonts/Hiragino Sans GB W3.otf
p396
sg20
g21
sbag1
(g8
g3
NtRp397
(dp398
g11
g12
sg13
S'STFangsong'
p399
sg15
I400
sg16
g12
sg17
g12
sg18
V/Library/Fonts/\u534e\u6587\u4eff\u5b8b.ttf
p400
sg20
g21
sbag1
(g8
g3
NtRp401
(dp402
g11
g12
sg13
S'Mshtakan'
p403
sg15
I700
sg16
g12
sg17
g12
sg18
V/Library/Fonts/MshtakanBold.ttf
p404
sg20
g21
sbag1
(g8
g3
NtRp405
(dp406
g11
g12
sg13
S'STHeiti'
p407
sg15
I400
sg16
g12
sg17
g12
sg18
V/Library/Fonts/\u534e\u6587\u9ed1\u4f53.ttf
p408
sg20
g21
sbag1
(g8
g3
NtRp409
(dp410
g11
g12
sg13
S'STIXIntegralsUp'
p411
sg15
I700
sg16
g12
sg17
g12
sg18
V/Library/Fonts/STIXIntUpBol.otf
p412
sg20
g21
sbag1
(g8
g3
NtRp413
(dp414
g11
g12
sg13
S'Wawati TC'
p415
sg15
I400
sg16
g12
sg17
g12
sg18
V/Library/Fonts/WawaTC-Regular.otf
p416
sg20
g21
sbag1
(g8
g3
NtRp417
(dp418
g11
g12
sg13
S'Skia'
p419
sg15
I400
sg16
g12
sg17
g12
sg18
V/Library/Fonts/Skia.ttf
p420
sg20
g21
sbag1
(g8
g3
NtRp421
(dp422
g11
g12
sg13
S'STIXSizeFiveSym'
p423
sg15
I400
sg16
g12
sg17
g12
sg18
V/Library/Fonts/STIXSizFiveSymReg.otf
p424
sg20
g21
sbag1
(g8
g3
NtRp425
(dp426
g11
g12
sg13
S'Verdana'
p427
sg15
I400
sg16
g12
sg17
g12
sg18
V/Library/Fonts/Verdana.ttf
p428
sg20
g21
sbag1
(g8
g3
NtRp429
(dp430
g11
g12
sg13
S'Gurmukhi MT'
p431
sg15
I400
sg16
g12
sg17
g12
sg18
V/Library/Fonts/Gurmukhi.ttf
p432
sg20
g21
sbag1
(g8
g3
NtRp433
(dp434
g11
g12
sg13
S'YuGothic'
p435
sg15
I700
sg16
g12
sg17
g12
sg18
V/Library/Fonts/Yu Gothic Bold.otf
p436
sg20
g21
sbag1
(g8
g3
NtRp437
(dp438
g11
g12
sg13
S'YuMincho'
p439
sg15
I700
sg16
g12
sg17
g12
sg18
V/Library/Fonts/Yu Mincho Demibold.otf
p440
sg20
g21
sbag1
(g8
g3
NtRp441
(dp442
g11
g40
sg13
S'Arial'
p443
sg15
I400
sg16
g12
sg17
g12
sg18
V/Library/Fonts/Arial Italic.ttf
p444
sg20
g21
sbag1
(g8
g3
NtRp445
(dp446
g11
g40
sg13
S'STIXNonUnicode'
p447
sg15
I700
sg16
g12
sg17
g12
sg18
V/Library/Fonts/STIXNonUniBolIta.otf
p448
sg20
g21
sbag1
(g8
g3
NtRp449
(dp450
g11
g12
sg13
S'Apple Braille'
p451
sg15
I400
sg16
g12
sg17
g12
sg18
V/System/Library/Fonts/Apple Braille Pinpoint 8 Dot.ttf
p452
sg20
g21
sbag1
(g8
g3
NtRp453
(dp454
g11
g40
sg13
S'Georgia'
p455
sg15
I400
sg16
g12
sg17
g12
sg18
V/Library/Fonts/Georgia Italic.ttf
p456
sg20
g21
sbag1
(g8
g3
NtRp457
(dp458
g11
g12
sg13
S'Apple Braille'
p459
sg15
I400
sg16
g12
sg17
g12
sg18
V/System/Library/Fonts/Apple Braille Outline 6 Dot.ttf
p460
sg20
g21
sbag1
(g8
g3
NtRp461
(dp462
g11
g12
sg13
S'Chalkduster'
p463
sg15
I400
sg16
g12
sg17
g12
sg18
V/Library/Fonts/Chalkduster.ttf
p464
sg20
g21
sbag1
(g8
g3
NtRp465
(dp466
g11
g40
sg13
S'Courier New'
p467
sg15
I700
sg16
g12
sg17
g12
sg18
V/Library/Fonts/Courier New Bold Italic.ttf
p468
sg20
g21
sbag1
(g8
g3
NtRp469
(dp470
g11
g12
sg13
S'Wawati SC'
p471
sg15
I400
sg16
g12
sg17
g12
sg18
V/Library/Fonts/WawaSC-Regular.otf
p472
sg20
g21
sbag1
(g8
g3
NtRp473
(dp474
g11
g12
sg13
S'Arial Rounded MT Bold'
p475
sg15
I700
sg16
g12
sg17
g12
sg18
V/Library/Fonts/Arial Rounded Bold.ttf
p476
sg20
g21
sbag1
(g8
g3
NtRp477
(dp478
g11
g12
sg13
S'Devanagari MT'
p479
sg15
I700
sg16
g12
sg17
g12
sg18
V/Library/Fonts/DevanagariMTBold.ttf
p480
sg20
g21
sbag1
(g8
g3
NtRp481
(dp482
g11
g12
sg13
S'Devanagari MT'
p483
sg15
I400
sg16
g12
sg17
g12
sg18
V/Library/Fonts/DevanagariMT.ttf
p484
sg20
g21
sbag1
(g8
g3
NtRp485
(dp486
g11
g12
sg13
S'PCMyungjo'
p487
sg15
I400
sg16
g12
sg17
g12
sg18
V/Library/Fonts/PCmyoungjo.ttf
p488
sg20
g21
sbag1
(g8
g3
NtRp489
(dp490
g11
g12
sg13
S'LastResort'
p491
sg15
I400
sg16
g12
sg17
g12
sg18
V/System/Library/Fonts/LastResort.ttf
p492
sg20
g21
sbag1
(g8
g3
NtRp493
(dp494
g11
g12
sg13
S'Apple SD Gothic Neo'
p495
sg15
I200
sg16
g12
sg17
g12
sg18
V/Library/Fonts/AppleSDGothicNeo-Light.otf
p496
sg20
g21
sbag1
(g8
g3
NtRp497
(dp498
g11
g12
sg13
S'Al Bayan'
p499
sg15
I400
sg16
g12
sg17
g12
sg18
V/Library/Fonts/AlBayan.ttf
p500
sg20
g21
sbag1
(g8
g3
NtRp501
(dp502
g11
g40
sg13
S'Verdana'
p503
sg15
I700
sg16
g12
sg17
g12
sg18
V/Library/Fonts/Verdana Bold Italic.ttf
p504
sg20
g21
sbag1
(g8
g3
NtRp505
(dp506
g11
g12
sg13
S'LiHei Pro'
p507
sg15
I400
sg16
g12
sg17
g12
sg18
V/Library/Fonts/\u5137\u9ed1 Pro.ttf
p508
sg20
g21
sbag1
(g8
g3
NtRp509
(dp510
g11
g12
sg13
S'Hiragino Sans GB'
p511
sg15
I700
sg16
g12
sg17
g12
sg18
V/Library/Fonts/Hiragino Sans GB W6.otf
p512
sg20
g21
sbag1
(g8
g3
NtRp513
(dp514
g11
g12
sg13
S'Kailasa'
p515
sg15
I400
sg16
g12
sg17
g12
sg18
V/Library/Fonts/Kailasa.ttf
p516
sg20
g21
sbag1
(g8
g3
NtRp517
(dp518
g11
g12
sg13
S'STIXIntegralsSm'
p519
sg15
I400
sg16
g12
sg17
g12
sg18
V/Library/Fonts/STIXIntSmReg.otf
p520
sg20
g21
sbag1
(g8
g3
NtRp521
(dp522
g11
g12
sg13
S'Apple SD Gothic Neo'
p523
sg15
I400
sg16
g12
sg17
g12
sg18
V/Library/Fonts/AppleSDGothicNeo-Thin.otf
p524
sg20
g21
sbag1
(g8
g3
NtRp525
(dp526
g11
g12
sg13
S'Kokonor'
p527
sg15
I400
sg16
g12
sg17
g12
sg18
V/Library/Fonts/Kokonor.ttf
p528
sg20
g21
sbag1
(g8
g3
NtRp529
(dp530
g11
g12
sg13
S'Geeza Pro'
p531
sg15
I700
sg16
g12
sg17
g12
sg18
V/System/Library/Fonts/Geeza Pro Bold.ttf
p532
sg20
g21
sbag1
(g8
g3
NtRp533
(dp534
g11
g40
sg13
S'Verdana'
p535
sg15
I400
sg16
g12
sg17
g12
sg18
V/Library/Fonts/Verdana Italic.ttf
p536
sg20
g21
sbag1
(g8
g3
NtRp537
(dp538
g11
g12
sg13
S'STIXGeneral'
p539
sg15
I700
sg16
g12
sg17
g12
sg18
V/Library/Fonts/STIXGeneralBol.otf
p540
sg20
g21
sbag1
(g8
g3
NtRp541
(dp542
g11
g12
sg13
S'Apple Braille'
p543
sg15
I400
sg16
g12
sg17
g12
sg18
V/System/Library/Fonts/Apple Braille.ttf
p544
sg20
g21
sbag1
(g8
g3
NtRp545
(dp546
g11
g12
sg13
S'InaiMathi'
p547
sg15
I400
sg16
g12
sg17
g12
sg18
V/Library/Fonts/InaiMathi.ttf
p548
sg20
g21
sbag1
(g8
g3
NtRp549
(dp550
g11
g12
sg13
S'Weibei TC'
p551
sg15
I700
sg16
g12
sg17
g12
sg18
V/Library/Fonts/WeibeiTC-Bold.otf
p552
sg20
g21
sbag1
(g8
g3
NtRp553
(dp554
g11
g12
sg13
S'STIXNonUnicode'
p555
sg15
I400
sg16
g12
sg17
g12
sg18
V/Library/Fonts/STIXNonUni.otf
p556
sg20
g21
sbag1
(g8
g3
NtRp557
(dp558
g11
g12
sg13
S'STIXIntegralsD'
p559
sg15
I400
sg16
g12
sg17
g12
sg18
V/Library/Fonts/STIXIntDReg.otf
p560
sg20
g21
sbag1
(g8
g3
NtRp561
(dp562
g11
g40
sg13
S'STIXNonUnicode'
p563
sg15
I400
sg16
g12
sg17
g12
sg18
V/Library/Fonts/STIXNonUniIta.otf
p564
sg20
g21
sbag1
(g8
g3
NtRp565
(dp566
g11
g12
sg13
S'Baghdad'
p567
sg15
I400
sg16
g12
sg17
g12
sg18
V/Library/Fonts/Baghdad.ttf
p568
sg20
g21
sbag1
(g8
g3
NtRp569
(dp570
g11
g12
sg13
S'STIXIntegralsUp'
p571
sg15
I400
sg16
g12
sg17
g12
sg18
V/Library/Fonts/STIXIntUpReg.otf
p572
sg20
g21
sbag1
(g8
g3
NtRp573
(dp574
g11
g12
sg13
S'Yuppy SC'
p575
sg15
I400
sg16
g12
sg17
g12
sg18
V/Library/Fonts/YuppySC-Regular.otf
p576
sg20
g21
sbag1
(g8
g3
NtRp577
(dp578
g11
g12
sg13
S'Comic Sans MS'
p579
sg15
I700
sg16
g12
sg17
g12
sg18
V/Library/Fonts/Comic Sans MS Bold.ttf
p580
sg20
g21
sbag1
(g8
g3
NtRp581
(dp582
g11
g12
sg13
S'Trebuchet MS'
p583
sg15
I400
sg16
g12
sg17
g12
sg18
V/Library/Fonts/Trebuchet MS.ttf
p584
sg20
g21
sbag1
(g8
g3
NtRp585
(dp586
g11
g12
sg13
S'Courier New'
p587
sg15
I700
sg16
g12
sg17
g12
sg18
V/Library/Fonts/Courier New Bold.ttf
p588
sg20
g21
sbag1
(g8
g3
NtRp589
(dp590
g11
g12
sg13
S'Big Caslon'
p591
sg15
I500
sg16
g12
sg17
g12
sg18
V/Library/Fonts/BigCaslon.ttf
p592
sg20
g21
sbag1
(g8
g3
NtRp593
(dp594
g11
g12
sg13
S'Ayuthaya'
p595
sg15
I400
sg16
g12
sg17
g12
sg18
V/Library/Fonts/Ayuthaya.ttf
p596
sg20
g21
sbag1
(g8
g3
NtRp597
(dp598
g11
g12
sg13
S'Apple SD Gothic Neo'
p599
sg15
I700
sg16
g12
sg17
g12
sg18
V/Library/Fonts/AppleSDGothicNeo-SemiBold.otf
p600
sg20
g21
sbag1
(g8
g3
NtRp601
(dp602
g11
g12
sg13
S'Herculanum'
p603
sg15
I400
sg16
g12
sg17
g12
sg18
V/Library/Fonts/Herculanum.ttf
p604
sg20
g21
sbag1
(g8
g3
NtRp605
(dp606
g11
g12
sg13
S'DecoType Naskh'
p607
sg15
I400
sg16
g12
sg17
g12
sg18
V/Library/Fonts/DecoTypeNaskh.ttf
p608
sg20
g21
sbag1
(g8
g3
NtRp609
(dp610
g11
g12
sg13
S'Apple Braille'
p611
sg15
I400
sg16
g12
sg17
g12
sg18
V/System/Library/Fonts/Apple Braille Pinpoint 6 Dot.ttf
p612
sg20
g21
sbag1
(g8
g3
NtRp613
(dp614
g11
g12
sg13
S'Hiragino Mincho ProN'
p615
sg15
I700
sg16
g12
sg17
g12
sg18
V/System/Library/Fonts/\u30d2\u30e9\u30ad\u3099\u30ce\u660e\u671d ProN W6.otf
p616
sg20
g21
sbag1
(g8
g3
NtRp617
(dp618
g11
g12
sg13
S'Symbol'
p619
sg15
I400
sg16
g12
sg17
g12
sg18
V/System/Library/Fonts/Symbol.ttf
p620
sg20
g21
sbag1
(g8
g3
NtRp621
(dp622
g11
g40
sg13
S'Trebuchet MS'
p623
sg15
I700
sg16
g12
sg17
g12
sg18
V/Library/Fonts/Trebuchet MS Bold Italic.ttf
p624
sg20
g21
sbag1
(g8
g3
NtRp625
(dp626
g11
g12
sg13
S'STHeiti'
p627
sg15
I400
sg16
g12
sg17
g12
sg18
V/Library/Fonts/\u534e\u6587\u7ec6\u9ed1.ttf
p628
sg20
g21
sbag1
(g8
g3
NtRp629
(dp630
g11
g12
sg13
S'Al Bayan'
p631
sg15
I700
sg16
g12
sg17
g12
sg18
V/Library/Fonts/AlBayanBold.ttf
p632
sg20
g21
sbag1
(g8
g3
NtRp633
(dp634
g11
g12
sg13
S'Wingdings 2'
p635
sg15
I400
sg16
g12
sg17
g12
sg18
V/Library/Fonts/Wingdings 2.ttf
p636
sg20
g21
sbag1
(g8
g3
NtRp637
(dp638
g11
g12
sg13
S'HeadLineA'
p639
sg15
I400
sg16
g12
sg17
g12
sg18
V/Library/Fonts/HeadlineA.ttf
p640
sg20
g21
sbag1
(g8
g3
NtRp641
(dp642
g11
g12
sg13
S'Tahoma'
p643
sg15
I400
sg16
g12
sg17
g12
sg18
V/Library/Fonts/Tahoma.ttf
p644
sg20
g21
sbag1
(g8
g3
NtRp645
(dp646
g11
g40
sg13
S'Brush Script MT'
p647
sg15
I400
sg16
g12
sg17
g12
sg18
V/Library/Fonts/Brush Script.ttf
p648
sg20
g21
sbag1
(g8
g3
NtRp649
(dp650
g11
g12
sg13
S'.Keyboard'
p651
sg15
I400
sg16
g12
sg17
g12
sg18
V/System/Library/Fonts/Keyboard.ttf
p652
sg20
g21
sbag1
(g8
g3
NtRp653
(dp654
g11
g12
sg13
S'STIXSizeOneSym'
p655
sg15
I400
sg16
g12
sg17
g12
sg18
V/Library/Fonts/STIXSizOneSymReg.otf
p656
sg20
g21
sbag1
(g8
g3
NtRp657
(dp658
g11
g12
sg13
S'STIXIntegralsUpSm'
p659
sg15
I400
sg16
g12
sg17
g12
sg18
V/Library/Fonts/STIXIntUpSmReg.otf
p660
sg20
g21
sbag1
(g8
g3
NtRp661
(dp662
g11
g12
sg13
S'Andale Mono'
p663
sg15
I400
sg16
g12
sg17
g12
sg18
V/Library/Fonts/Andale Mono.ttf
p664
sg20
g21
sbag1
(g8
g3
NtRp665
(dp666
g11
g12
sg13
S'Geeza Pro'
p667
sg15
I400
sg16
g12
sg17
g12
sg18
V/System/Library/Fonts/Geeza Pro.ttf
p668
sg20
g21
sbag1
(g8
g3
NtRp669
(dp670
g11
g12
sg13
S'Khmer Sangam MN'
p671
sg15
I400
sg16
g12
sg17
g12
sg18
V/Library/Fonts/Khmer Sangam MN.ttf
p672
sg20
g21
sbag1
(g8
g3
NtRp673
(dp674
g11
g12
sg13
S'YuMincho'
p675
sg15
I400
sg16
g12
sg17
g12
sg18
V/Library/Fonts/Yu Mincho Medium.otf
p676
sg20
g21
sbag1
(g8
g3
NtRp677
(dp678
g11
g12
sg13
S'Microsoft Sans Serif'
p679
sg15
I400
sg16
g12
sg17
g12
sg18
V/Library/Fonts/Microsoft Sans Serif.ttf
p680
sg20
g21
sbag1
(g8
g3
NtRp681
(dp682
g11
g12
sg13
S'STIXIntegralsUpD'
p683
sg15
I700
sg16
g12
sg17
g12
sg18
V/Library/Fonts/STIXIntUpDBol.otf
p684
sg20
g21
sbag1
(g8
g3
NtRp685
(dp686
g11
g12
sg13
S'Kai'
p687
sg15
I400
sg16
g12
sg17
g12
sg18
V/Library/Fonts/Kai.ttf
p688
sg20
g21
sbag1
(g8
g3
NtRp689
(dp690
g11
g12
sg13
S'STIXGeneral'
p691
sg15
I400
sg16
g12
sg17
g12
sg18
V/Library/Fonts/STIXGeneral.otf
p692
sg20
g21
sbag1
(g8
g3
NtRp693
(dp694
g11
g40
sg13
S'Courier New'
p695
sg15
I400
sg16
g12
sg17
g12
sg18
V/Library/Fonts/Courier New Italic.ttf
p696
sg20
g21
sbag1
(g8
g3
NtRp697
(dp698
g11
g12
sg13
S'Arial Black'
p699
sg15
I900
sg16
g12
sg17
g12
sg18
V/Library/Fonts/Arial Black.ttf
p700
sg20
g21
sbag1
(g8
g3
NtRp701
(dp702
g11
g40
sg13
S'STIXGeneral'
p703
sg15
I400
sg16
g12
sg17
g12
sg18
V/Library/Fonts/STIXGeneralItalic.otf
p704
sg20
g21
sbag1
(g8
g3
NtRp705
(dp706
g11
g12
sg13
S'Silom'
p707
sg15
I400
sg16
g12
sg17
g12
sg18
V/Library/Fonts/Silom.ttf
p708
sg20
g21
sbag1
(g8
g3
NtRp709
(dp710
g11
g57
sg13
S'Mshtakan'
p711
sg15
I700
sg16
g12
sg17
g12
sg18
V/Library/Fonts/MshtakanBoldOblique.ttf
p712
sg20
g21
sbag1
(g8
g3
NtRp713
(dp714
g11
g12
sg13
S'Yuppy TC'
p715
sg15
I400
sg16
g12
sg17
g12
sg18
V/Library/Fonts/YuppyTC-Regular.otf
p716
sg20
g21
sbag1
(g8
g3
NtRp717
(dp718
g11
g12
sg13
S'Hiragino Kaku Gothic ProN'
p719
sg15
I400
sg16
g12
sg17
g12
sg18
V/System/Library/Fonts/\u30d2\u30e9\u30ad\u3099\u30ce\u89d2\u30b3\u3099 ProN W3.otf
p720
sg20
g21
sbag1
(g8
g3
NtRp721
(dp722
g11
g12
sg13
S'STIXSizeFourSym'
p723
sg15
I400
sg16
g12
sg17
g12
sg18
V/Library/Fonts/STIXSizFourSymReg.otf
p724
sg20
g21
sbag1
(g8
g3
NtRp725
(dp726
g11
g12
sg13
S'Apple Chancery'
p727
sg15
I400
sg16
g12
sg17
g12
sg18
V/Library/Fonts/Apple Chancery.ttf
p728
sg20
g21
sbag1
(g8
g3
NtRp729
(dp730
g11
g12
sg13
S'Wingdings 3'
p731
sg15
I400
sg16
g12
sg17
g12
sg18
V/Library/Fonts/Wingdings 3.ttf
p732
sg20
g21
sbag1
(g8
g3
NtRp733
(dp734
g11
g40
sg13
S'STIXGeneral'
p735
sg15
I700
sg16
g12
sg17
g12
sg18
V/Library/Fonts/STIXGeneralBolIta.otf
p736
sg20
g21
sbag1
(g8
g3
NtRp737
(dp738
g11
g12
sg13
S'STIXIntegralsUpSm'
p739
sg15
I700
sg16
g12
sg17
g12
sg18
V/Library/Fonts/STIXIntUpSmBol.otf
p740
sg20
g21
sbag1
(g8
g3
NtRp741
(dp742
g11
g12
sg13
S'Lao Sangam MN'
p743
sg15
I400
sg16
g12
sg17
g12
sg18
V/Library/Fonts/Lao Sangam MN.ttf
p744
sg20
g21
sbag1
(g8
g3
NtRp745
(dp746
g11
g12
sg13
S'KufiStandardGK'
p747
sg15
I400
sg16
g12
sg17
g12
sg18
V/Library/Fonts/KufiStandardGK.ttf
p748
sg20
g21
sbag1
(g8
g3
NtRp749
(dp750
g11
g12
sg13
S'STIXSizeOneSym'
p751
sg15
I700
sg16
g12
sg17
g12
sg18
V/Library/Fonts/STIXSizOneSymBol.otf
p752
sg20
g21
sbag1
(g8
g3
NtRp753
(dp754
g11
g12
sg13
S'Comic Sans MS'
p755
sg15
I400
sg16
g12
sg17
g12
sg18
V/Library/Fonts/Comic Sans MS.ttf
p756
sg20
g21
sbag1
(g8
g3
NtRp757
(dp758
g11
g12
sg13
S'STIXSizeTwoSym'
p759
sg15
I400
sg16
g12
sg17
g12
sg18
V/Library/Fonts/STIXSizTwoSymReg.otf
p760
sg20
g21
sbag1
(g8
g3
NtRp761
(dp762
g11
g12
sg13
S'Hei'
p763
sg15
I400
sg16
g12
sg17
g12
sg18
V/Library/Fonts/Hei.ttf
p764
sg20
g21
sbag1
(g8
g3
NtRp765
(dp766
g11
g12
sg13
S'Weibei SC'
p767
sg15
I700
sg16
g12
sg17
g12
sg18
V/Library/Fonts/WeibeiSC-Bold.otf
p768
sg20
g21
sbag1
(g8
g3
NtRp769
(dp770
g11
g12
sg13
S'STIXSizeFourSym'
p771
sg15
I700
sg16
g12
sg17
g12
sg18
V/Library/Fonts/STIXSizFourSymBol.otf
p772
sg20
g21
sbag1
(g8
g3
NtRp773
(dp774
g11
g12
sg13
S'Apple LiGothic'
p775
sg15
I500
sg16
g12
sg17
g12
sg18
V/Library/Fonts/Apple LiGothic Medium.ttf
p776
sg20
g21
sbag1
(g8
g3
NtRp777
(dp778
g11
g12
sg13
S'Arial'
p779
sg15
I700
sg16
g12
sg17
g12
sg18
V/Library/Fonts/Arial Bold.ttf
p780
sg20
g21
sbag1
(g8
g3
NtRp781
(dp782
g11
g12
sg13
S'Georgia'
p783
sg15
I700
sg16
g12
sg17
g12
sg18
V/Library/Fonts/Georgia Bold.ttf
p784
sg20
g21
sbag1
(g8
g3
NtRp785
(dp786
g11
g12
sg13
S'Osaka'
p787
sg15
I400
sg16
g12
sg17
g12
sg18
V/Library/Fonts/OsakaMono.ttf
p788
sg20
g21
sbag1
(g8
g3
NtRp789
(dp790
g11
g12
sg13
S'GungSeo'
p791
sg15
I400
sg16
g12
sg17
g12
sg18
V/Library/Fonts/Gungseouche.ttf
p792
sg20
g21
sbag1
(g8
g3
NtRp793
(dp794
g11
g12
sg13
S'STIXSizeTwoSym'
p795
sg15
I700
sg16
g12
sg17
g12
sg18
V/Library/Fonts/STIXSizTwoSymBol.otf
p796
sg20
g21
sbag1
(g8
g3
NtRp797
(dp798
g11
g12
sg13
S'Wingdings'
p799
sg15
I400
sg16
g12
sg17
g12
sg18
V/Library/Fonts/Wingdings.ttf
p800
sg20
g21
sbag1
(g8
g3
NtRp801
(dp802
g11
g12
sg13
S'Hiragino Kaku Gothic StdN'
p803
sg15
I700
sg16
g12
sg17
g12
sg18
V/Library/Fonts/\u30d2\u30e9\u30ad\u3099\u30ce\u89d2\u30b3\u3099 StdN W8.otf
p804
sg20
g21
sbag1
(g8
g3
NtRp805
(dp806
g11
g12
sg13
S'Impact'
p807
sg15
I400
sg16
g12
sg17
g12
sg18
V/Library/Fonts/Impact.ttf
p808
sg20
g21
sbag1
(g8
g3
NtRp809
(dp810
g11
g12
sg13
S'Tahoma'
p811
sg15
I700
sg16
g12
sg17
g12
sg18
V/Library/Fonts/Tahoma Bold.ttf
p812
sg20
g21
sbag1
(g8
g3
NtRp813
(dp814
g11
g12
sg13
S'STIXNonUnicode'
p815
sg15
I700
sg16
g12
sg17
g12
sg18
V/Library/Fonts/STIXNonUniBol.otf
p816
sg20
g21
sbag1
(g8
g3
NtRp817
(dp818
g11
g40
sg13
S'Georgia'
p819
sg15
I700
sg16
g12
sg17
g12
sg18
V/Library/Fonts/Georgia Bold Italic.ttf
p820
sg20
g21
sbag1
(g8
g3
NtRp821
(dp822
g11
g12
sg13
S'STIXIntegralsUpD'
p823
sg15
I400
sg16
g12
sg17
g12
sg18
V/Library/Fonts/STIXIntUpDReg.otf
p824
sg20
g21
sbag1
(g8
g3
NtRp825
(dp826
g11
g12
sg13
S'Sathu'
p827
sg15
I400
sg16
g12
sg17
g12
sg18
V/Library/Fonts/Sathu.ttf
p828
sg20
g21
sbag1
(g8
g3
NtRp829
(dp830
g11
g12
sg13
S'Gujarati MT'
p831
sg15
I400
sg16
g12
sg17
g12
sg18
V/Library/Fonts/GujaratiMT.ttf
p832
sg20
g21
sbag1
(g8
g3
NtRp833
(dp834
g11
g12
sg13
S'Apple SD Gothic Neo'
p835
sg15
I500
sg16
g12
sg17
g12
sg18
V/Library/Fonts/AppleSDGothicNeo-Medium.otf
p836
sg20
g21
sbasS'defaultFamily'
p837
(dp838
Vafm
p839
VHelvetica
p840
sVttf
p841
VBitstream Vera Sans
p842
ssS'ttffiles'
p843
(lp844
g19
ag25
ag29
ag33
ag37
ag42
ag46
ag50
ag54
ag59
ag63
ag67
ag71
ag75
ag79
ag83
ag87
ag91
ag95
ag99
ag103
ag107
ag111
ag115
ag119
ag123
ag127
ag131
ag135
ag139
ag143
ag147
ag151
ag155
ag159
ag163
ag167
ag171
ag175
ag179
ag183
ag187
ag191
ag196
ag200
ag204
ag208
ag212
ag216
ag220
ag224
ag228
ag232
ag236
ag240
aV/Library/Fonts/NISC18030.ttf
p845
ag244
ag248
ag252
ag256
ag260
ag264
ag268
ag272
ag276
ag280
ag284
ag288
ag292
ag296
ag300
ag304
ag308
ag312
ag316
ag320
ag324
ag328
ag332
ag336
ag340
ag344
ag348
ag352
ag356
ag360
ag364
ag368
ag372
ag376
ag380
ag384
ag388
ag392
ag396
ag400
ag404
ag408
ag412
ag416
ag420
ag424
ag428
ag432
ag436
aV/System/Library/Fonts/Apple Color Emoji.ttf
p846
ag440
ag444
ag448
ag452
ag456
ag460
ag464
ag468
ag472
ag476
ag480
ag484
ag488
ag492
ag496
ag500
ag504
ag508
ag512
ag516
ag520
ag524
ag528
ag532
ag536
ag540
ag544
ag548
ag552
ag556
ag560
ag564
ag568
ag572
ag576
ag580
ag584
ag588
ag592
ag596
ag600
ag604
ag608
ag612
ag616
ag620
ag624
ag628
ag632
ag636
ag640
ag644
ag648
ag652
ag656
ag660
ag664
ag668
ag672
ag676
ag680
ag684
ag688
ag692
ag696
ag700
ag704
ag708
ag712
ag716
ag720
ag724
ag728
ag732
ag736
ag740
ag744
ag748
ag752
ag756
ag760
ag764
ag768
ag772
ag776
ag780
ag784
ag788
ag792
ag796
ag800
ag804
ag808
ag812
ag816
ag820
ag824
ag828
ag832
ag836
asS'_FontManager__default_weight'
p847
Vnormal
p848
sS'_version'
p849
I101
sS'default_size'
p850
NsS'defaultFont'
p851
(dp852
g839
V/Users/gjreda/.virtualenvs/pydata/lib/python2.7/site-packages/matplotlib/mpl-data/fonts/afm/pncr8a.afm
p853
sg841
g95
ssS'afmfiles'
p854
(lp855
g853
aV/Users/gjreda/.virtualenvs/pydata/lib/python2.7/site-packages/matplotlib/mpl-data/fonts/pdfcorefonts/Times-Bold.afm
p856
aV/Users/gjreda/.virtualenvs/pydata/lib/python2.7/site-packages/matplotlib/mpl-data/fonts/afm/pplr8a.afm
p857
aV/Users/gjreda/.virtualenvs/pydata/lib/python2.7/site-packages/matplotlib/mpl-data/fonts/afm/ptmr8a.afm
p858
aV/Users/gjreda/.virtualenvs/pydata/lib/python2.7/site-packages/matplotlib/mpl-data/fonts/pdfcorefonts/Courier-Bold.afm
p859
aV/Users/gjreda/.virtualenvs/pydata/lib/python2.7/site-packages/matplotlib/mpl-data/fonts/afm/pncri8a.afm
p860
aV/Users/gjreda/.virtualenvs/pydata/lib/python2.7/site-packages/matplotlib/mpl-data/fonts/pdfcorefonts/Times-Roman.afm
p861
aV/Users/gjreda/.virtualenvs/pydata/lib/python2.7/site-packages/matplotlib/mpl-data/fonts/afm/phvlo8a.afm
p862
aV/Users/gjreda/.virtualenvs/pydata/lib/python2.7/site-packages/matplotlib/mpl-data/fonts/afm/putri8a.afm
p863
aV/Users/gjreda/.virtualenvs/pydata/lib/python2.7/site-packages/matplotlib/mpl-data/fonts/afm/putr8a.afm
p864
aV/Users/gjreda/.virtualenvs/pydata/lib/python2.7/site-packages/matplotlib/mpl-data/fonts/afm/phvbo8an.afm
p865
aV/Users/gjreda/.virtualenvs/pydata/lib/python2.7/site-packages/matplotlib/mpl-data/fonts/afm/pzdr.afm
p866
aV/Users/gjreda/.virtualenvs/pydata/lib/python2.7/site-packages/matplotlib/mpl-data/fonts/afm/ptmb8a.afm
p867
aV/Users/gjreda/.virtualenvs/pydata/lib/python2.7/site-packages/matplotlib/mpl-data/fonts/afm/pagko8a.afm
p868
aV/Users/gjreda/.virtualenvs/pydata/lib/python2.7/site-packages/matplotlib/mpl-data/fonts/pdfcorefonts/Helvetica-BoldOblique.afm
p869
aV/Users/gjreda/.virtualenvs/pydata/lib/python2.7/site-packages/matplotlib/mpl-data/fonts/afm/pncbi8a.afm
p870
aV/Users/gjreda/.virtualenvs/pydata/lib/python2.7/site-packages/matplotlib/mpl-data/fonts/afm/pcrb8a.afm
p871
aV/Users/gjreda/.virtualenvs/pydata/lib/python2.7/site-packages/matplotlib/mpl-data/fonts/afm/phvro8a.afm
p872
aV/Users/gjreda/.virtualenvs/pydata/lib/python2.7/site-packages/matplotlib/mpl-data/fonts/afm/pncb8a.afm
p873
aV/Users/gjreda/.virtualenvs/pydata/lib/python2.7/site-packages/matplotlib/mpl-data/fonts/pdfcorefonts/Courier-Oblique.afm
p874
aV/Users/gjreda/.virtualenvs/pydata/lib/python2.7/site-packages/matplotlib/mpl-data/fonts/afm/putbi8a.afm
p875
aV/Users/gjreda/.virtualenvs/pydata/lib/python2.7/site-packages/matplotlib/mpl-data/fonts/afm/phvro8an.afm
p876
aV/Users/gjreda/.virtualenvs/pydata/lib/python2.7/site-packages/matplotlib/mpl-data/fonts/afm/pplbi8a.afm
p877
aV/Users/gjreda/.virtualenvs/pydata/lib/python2.7/site-packages/matplotlib/mpl-data/fonts/pdfcorefonts/Times-BoldItalic.afm
p878
aV/Users/gjreda/.virtualenvs/pydata/lib/python2.7/site-packages/matplotlib/mpl-data/fonts/afm/cmmi10.afm
p879
aV/Users/gjreda/.virtualenvs/pydata/lib/python2.7/site-packages/matplotlib/mpl-data/fonts/afm/pcrr8a.afm
p880
aV/Users/gjreda/.virtualenvs/pydata/lib/python2.7/site-packages/matplotlib/mpl-data/fonts/pdfcorefonts/Times-Italic.afm
p881
aV/Users/gjreda/.virtualenvs/pydata/lib/python2.7/site-packages/matplotlib/mpl-data/fonts/afm/cmex10.afm
p882
aV/Users/gjreda/.virtualenvs/pydata/lib/python2.7/site-packages/matplotlib/mpl-data/fonts/afm/pbkd8a.afm
p883
aV/Users/gjreda/.virtualenvs/pydata/lib/python2.7/site-packages/matplotlib/mpl-data/fonts/afm/pagdo8a.afm
p884
aV/Users/gjreda/.virtualenvs/pydata/lib/python2.7/site-packages/matplotlib/mpl-data/fonts/afm/pplb8a.afm
p885
aV/Users/gjreda/.virtualenvs/pydata/lib/python2.7/site-packages/matplotlib/mpl-data/fonts/afm/phvb8a.afm
p886
aV/Users/gjreda/.virtualenvs/pydata/lib/python2.7/site-packages/matplotlib/mpl-data/fonts/pdfcorefonts/Courier.afm
p887
aV/Users/gjreda/.virtualenvs/pydata/lib/python2.7/site-packages/matplotlib/mpl-data/fonts/afm/cmsy10.afm
p888
aV/Users/gjreda/.virtualenvs/pydata/lib/python2.7/site-packages/matplotlib/mpl-data/fonts/afm/psyr.afm
p889
aV/Users/gjreda/.virtualenvs/pydata/lib/python2.7/site-packages/matplotlib/mpl-data/fonts/afm/phvr8a.afm
p890
aV/Users/gjreda/.virtualenvs/pydata/lib/python2.7/site-packages/matplotlib/mpl-data/fonts/afm/phvr8an.afm
p891
aV/Users/gjreda/.virtualenvs/pydata/lib/python2.7/site-packages/matplotlib/mpl-data/fonts/afm/pcrro8a.afm
p892
aV/Users/gjreda/.virtualenvs/pydata/lib/python2.7/site-packages/matplotlib/mpl-data/fonts/afm/cmtt10.afm
p893
aV/Users/gjreda/.virtualenvs/pydata/lib/python2.7/site-packages/matplotlib/mpl-data/fonts/pdfcorefonts/Courier-BoldOblique.afm
p894
aV/Users/gjreda/.virtualenvs/pydata/lib/python2.7/site-packages/matplotlib/mpl-data/fonts/afm/putb8a.afm
p895
aV/Users/gjreda/.virtualenvs/pydata/lib/python2.7/site-packages/matplotlib/mpl-data/fonts/afm/pbkdi8a.afm
p896
aV/Users/gjreda/.virtualenvs/pydata/lib/python2.7/site-packages/matplotlib/mpl-data/fonts/afm/ptmbi8a.afm
p897
aV/Users/gjreda/.virtualenvs/pydata/lib/python2.7/site-packages/matplotlib/mpl-data/fonts/afm/pplri8a.afm
p898
aV/Users/gjreda/.virtualenvs/pydata/lib/python2.7/site-packages/matplotlib/mpl-data/fonts/afm/ptmri8a.afm
p899
aV/Users/gjreda/.virtualenvs/pydata/lib/python2.7/site-packages/matplotlib/mpl-data/fonts/afm/phvb8an.afm
p900
aV/Users/gjreda/.virtualenvs/pydata/lib/python2.7/site-packages/matplotlib/mpl-data/fonts/afm/pbkl8a.afm
p901
aV/Users/gjreda/.virtualenvs/pydata/lib/python2.7/site-packages/matplotlib/mpl-data/fonts/afm/pzcmi8a.afm
p902
aV/Users/gjreda/.virtualenvs/pydata/lib/python2.7/site-packages/matplotlib/mpl-data/fonts/pdfcorefonts/Helvetica-Oblique.afm
p903
aV/Users/gjreda/.virtualenvs/pydata/lib/python2.7/site-packages/matplotlib/mpl-data/fonts/afm/pagk8a.afm
p904
aV/Users/gjreda/.virtualenvs/pydata/lib/python2.7/site-packages/matplotlib/mpl-data/fonts/afm/phvbo8a.afm
p905
aV/Users/gjreda/.virtualenvs/pydata/lib/python2.7/site-packages/matplotlib/mpl-data/fonts/afm/phvl8a.afm
p906
aV/Users/gjreda/.virtualenvs/pydata/lib/python2.7/site-packages/matplotlib/mpl-data/fonts/afm/pbkli8a.afm
p907
aV/Users/gjreda/.virtualenvs/pydata/lib/python2.7/site-packages/matplotlib/mpl-data/fonts/afm/pagd8a.afm
p908
aV/Users/gjreda/.virtualenvs/pydata/lib/python2.7/site-packages/matplotlib/mpl-data/fonts/afm/cmr10.afm
p909
aV/Users/gjreda/.virtualenvs/pydata/lib/python2.7/site-packages/matplotlib/mpl-data/fonts/pdfcorefonts/ZapfDingbats.afm
p910
aV/Users/gjreda/.virtualenvs/pydata/lib/python2.7/site-packages/matplotlib/mpl-data/fonts/pdfcorefonts/Symbol.afm
p911
aV/Users/gjreda/.virtualenvs/pydata/lib/python2.7/site-packages/matplotlib/mpl-data/fonts/afm/pcrbo8a.afm
p912
aV/Users/gjreda/.virtualenvs/pydata/lib/python2.7/site-packages/matplotlib/mpl-data/fonts/pdfcorefonts/Helvetica.afm
p913
aV/Users/gjreda/.virtualenvs/pydata/lib/python2.7/site-packages/matplotlib/mpl-data/fonts/pdfcorefonts/Helvetica-Bold.afm
p914
asS'afmlist'
p915
(lp916
g1
(g8
g3
NtRp917
(dp918
g11
Vnormal
p919
sg13
S'New Century Schoolbook'
p920
sg15
I500
sg16
g919
sg17
g919
sg18
g853
sg20
Vscalable
p921
sbag1
(g8
g3
NtRp922
(dp923
g11
g919
sg13
S'Times'
p924
sg15
I700
sg16
g919
sg17
g919
sg18
g856
sg20
g921
sbag1
(g8
g3
NtRp925
(dp926
g11
g919
sg13
S'Palatino'
p927
sg15
I500
sg16
g919
sg17
g919
sg18
g857
sg20
g921
sbag1
(g8
g3
NtRp928
(dp929
g11
g919
sg13
S'Times'
p930
sg15
I500
sg16
g919
sg17
g919
sg18
g858
sg20
g921
sbag1
(g8
g3
NtRp931
(dp932
g11
g919
sg13
S'Courier'
p933
sg15
I700
sg16
g919
sg17
g919
sg18
g859
sg20
g921
sbag1
(g8
g3
NtRp934
(dp935
g11
Vitalic
p936
sg13
S'New Century Schoolbook'
p937
sg15
I500
sg16
g919
sg17
g919
sg18
g860
sg20
g921
sbag1
(g8
g3
NtRp938
(dp939
g11
g919
sg13
S'Times'
p940
sg15
I500
sg16
g919
sg17
g919
sg18
g861
sg20
g921
sbag1
(g8
g3
NtRp941
(dp942
g11
g936
sg13
S'Helvetica'
p943
sg15
I200
sg16
g919
sg17
g919
sg18
g862
sg20
g921
sbag1
(g8
g3
NtRp944
(dp945
g11
g936
sg13
S'Utopia'
p946
sg15
I400
sg16
g919
sg17
g919
sg18
g863
sg20
g921
sbag1
(g8
g3
NtRp947
(dp948
g11
g919
sg13
S'Utopia'
p949
sg15
I400
sg16
g919
sg17
g919
sg18
g864
sg20
g921
sbag1
(g8
g3
NtRp950
(dp951
g11
g936
sg13
S'Helvetica'
p952
sg15
I700
sg16
Vcondensed
p953
sg17
g919
sg18
g865
sg20
g921
sbag1
(g8
g3
NtRp954
(dp955
g11
g919
sg13
S'ITC Zapf Dingbats'
p956
sg15
I500
sg16
g919
sg17
g919
sg18
g866
sg20
g921
sbag1
(g8
g3
NtRp957
(dp958
g11
g919
sg13
S'Times'
p959
sg15
I700
sg16
g919
sg17
g919
sg18
g867
sg20
g921
sbag1
(g8
g3
NtRp960
(dp961
g11
g936
sg13
S'ITC Avant Garde Gothic'
p962
sg15
I400
sg16
g919
sg17
g919
sg18
g868
sg20
g921
sbag1
(g8
g3
NtRp963
(dp964
g11
g936
sg13
S'Helvetica'
p965
sg15
I700
sg16
g919
sg17
g919
sg18
g869
sg20
g921
sbag1
(g8
g3
NtRp966
(dp967
g11
g936
sg13
S'New Century Schoolbook'
p968
sg15
I700
sg16
g919
sg17
g919
sg18
g870
sg20
g921
sbag1
(g8
g3
NtRp969
(dp970
g11
g919
sg13
S'Courier'
p971
sg15
I700
sg16
g919
sg17
g919
sg18
g871
sg20
g921
sbag1
(g8
g3
NtRp972
(dp973
g11
g936
sg13
S'Helvetica'
p974
sg15
I500
sg16
g919
sg17
g919
sg18
g872
sg20
g921
sbag1
(g8
g3
NtRp975
(dp976
g11
g919
sg13
S'New Century Schoolbook'
p977
sg15
I700
sg16
g919
sg17
g919
sg18
g873
sg20
g921
sbag1
(g8
g3
NtRp978
(dp979
g11
g936
sg13
S'Courier'
p980
sg15
I500
sg16
g919
sg17
g919
sg18
g874
sg20
g921
sbag1
(g8
g3
NtRp981
(dp982
g11
g936
sg13
S'Utopia'
p983
sg15
I700
sg16
g919
sg17
g919
sg18
g875
sg20
g921
sbag1
(g8
g3
NtRp984
(dp985
g11
g936
sg13
S'Helvetica'
p986
sg15
I500
sg16
g953
sg17
g919
sg18
g876
sg20
g921
sbag1
(g8
g3
NtRp987
(dp988
g11
g936
sg13
S'Palatino'
p989
sg15
I700
sg16
g919
sg17
g919
sg18
g877
sg20
g921
sbag1
(g8
g3
NtRp990
(dp991
g11
g936
sg13
S'Times'
p992
sg15
I700
sg16
g919
sg17
g919
sg18
g878
sg20
g921
sbag1
(g8
g3
NtRp993
(dp994
g11
g936
sg13
S'Computer Modern'
p995
sg15
I500
sg16
g919
sg17
g919
sg18
g879
sg20
g921
sbag1
(g8
g3
NtRp996
(dp997
g11
g919
sg13
S'Courier'
p998
sg15
I500
sg16
g919
sg17
g919
sg18
g880
sg20
g921
sbag1
(g8
g3
NtRp999
(dp1000
g11
g936
sg13
S'Times'
p1001
sg15
I500
sg16
g919
sg17
g919
sg18
g881
sg20
g921
sbag1
(g8
g3
NtRp1002
(dp1003
g11
g919
sg13
S'Computer Modern'
p1004
sg15
I500
sg16
g919
sg17
g919
sg18
g882
sg20
g921
sbag1
(g8
g3
NtRp1005
(dp1006
g11
g919
sg13
S'ITC Bookman'
p1007
sg15
I600
sg16
g919
sg17
g919
sg18
g883
sg20
g921
sbag1
(g8
g3
NtRp1008
(dp1009
g11
g936
sg13
S'ITC Avant Garde Gothic'
p1010
sg15
I600
sg16
g919
sg17
g919
sg18
g884
sg20
g921
sbag1
(g8
g3
NtRp1011
(dp1012
g11
g919
sg13
S'Palatino'
p1013
sg15
I700
sg16
g919
sg17
g919
sg18
g885
sg20
g921
sbag1
(g8
g3
NtRp1014
(dp1015
g11
g919
sg13
S'Helvetica'
p1016
sg15
I700
sg16
g919
sg17
g919
sg18
g886
sg20
g921
sbag1
(g8
g3
NtRp1017
(dp1018
g11
g919
sg13
S'Courier'
p1019
sg15
I500
sg16
g919
sg17
g919
sg18
g887
sg20
g921
sbag1
(g8
g3
NtRp1020
(dp1021
g11
g936
sg13
S'Computer Modern'
p1022
sg15
I500
sg16
g919
sg17
g919
sg18
g888
sg20
g921
sbag1
(g8
g3
NtRp1023
(dp1024
g11
g919
sg13
S'Symbol'
p1025
sg15
I500
sg16
g919
sg17
g919
sg18
g889
sg20
g921
sbag1
(g8
g3
NtRp1026
(dp1027
g11
g919
sg13
S'Helvetica'
p1028
sg15
I500
sg16
g919
sg17
g919
sg18
g890
sg20
g921
sbag1
(g8
g3
NtRp1029
(dp1030
g11
g919
sg13
S'Helvetica'
p1031
sg15
I500
sg16
g953
sg17
g919
sg18
g891
sg20
g921
sbag1
(g8
g3
NtRp1032
(dp1033
g11
g936
sg13
S'Courier'
p1034
sg15
I500
sg16
g919
sg17
g919
sg18
g892
sg20
g921
sbag1
(g8
g3
NtRp1035
(dp1036
g11
g919
sg13
S'Computer Modern'
p1037
sg15
I500
sg16
g919
sg17
g919
sg18
g893
sg20
g921
sbag1
(g8
g3
NtRp1038
(dp1039
g11
g936
sg13
S'Courier'
p1040
sg15
I700
sg16
g919
sg17
g919
sg18
g894
sg20
g921
sbag1
(g8
g3
NtRp1041
(dp1042
g11
g919
sg13
S'Utopia'
p1043
sg15
I700
sg16
g919
sg17
g919
sg18
g895
sg20
g921
sbag1
(g8
g3
NtRp1044
(dp1045
g11
g936
sg13
S'ITC Bookman'
p1046
sg15
I600
sg16
g919
sg17
g919
sg18
g896
sg20
g921
sbag1
(g8
g3
NtRp1047
(dp1048
g11
g936
sg13
S'Times'
p1049
sg15
I700
sg16
g919
sg17
g919
sg18
g897
sg20
g921
sbag1
(g8
g3
NtRp1050
(dp1051
g11
g936
sg13
S'Palatino'
p1052
sg15
I500
sg16
g919
sg17
g919
sg18
g898
sg20
g921
sbag1
(g8
g3
NtRp1053
(dp1054
g11
g936
sg13
S'Times'
p1055
sg15
I500
sg16
g919
sg17
g919
sg18
g899
sg20
g921
sbag1
(g8
g3
NtRp1056
(dp1057
g11
g919
sg13
S'Helvetica'
p1058
sg15
I700
sg16
g953
sg17
g919
sg18
g900
sg20
g921
sbag1
(g8
g3
NtRp1059
(dp1060
g11
g919
sg13
S'ITC Bookman'
p1061
sg15
I200
sg16
g919
sg17
g919
sg18
g901
sg20
g921
sbag1
(g8
g3
NtRp1062
(dp1063
g11
g936
sg13
S'ITC Zapf Chancery'
p1064
sg15
I500
sg16
g919
sg17
g919
sg18
g902
sg20
g921
sbag1
(g8
g3
NtRp1065
(dp1066
g11
g936
sg13
S'Helvetica'
p1067
sg15
I500
sg16
g919
sg17
g919
sg18
g903
sg20
g921
sbag1
(g8
g3
NtRp1068
(dp1069
g11
g919
sg13
S'ITC Avant Garde Gothic'
p1070
sg15
I400
sg16
g919
sg17
g919
sg18
g904
sg20
g921
sbag1
(g8
g3
NtRp1071
(dp1072
g11
g936
sg13
S'Helvetica'
p1073
sg15
I700
sg16
g919
sg17
g919
sg18
g905
sg20
g921
sbag1
(g8
g3
NtRp1074
(dp1075
g11
g919
sg13
S'Helvetica'
p1076
sg15
I200
sg16
g919
sg17
g919
sg18
g906
sg20
g921
sbag1
(g8
g3
NtRp1077
(dp1078
g11
g936
sg13
S'ITC Bookman'
p1079
sg15
I200
sg16
g919
sg17
g919
sg18
g907
sg20
g921
sbag1
(g8
g3
NtRp1080
(dp1081
g11
g919
sg13
S'ITC Avant Garde Gothic'
p1082
sg15
I600
sg16
g919
sg17
g919
sg18
g908
sg20
g921
sbag1
(g8
g3
NtRp1083
(dp1084
g11
g919
sg13
S'Computer Modern'
p1085
sg15
I500
sg16
g919
sg17
g919
sg18
g909
sg20
g921
sbag1
(g8
g3
NtRp1086
(dp1087
g11
g919
sg13
S'ZapfDingbats'
p1088
sg15
I500
sg16
g919
sg17
g919
sg18
g910
sg20
g921
sbag1
(g8
g3
NtRp1089
(dp1090
g11
g919
sg13
S'Symbol'
p1091
sg15
I500
sg16
g919
sg17
g919
sg18
g911
sg20
g921
sbag1
(g8
g3
NtRp1092
(dp1093
g11
g936
sg13
S'Courier'
p1094
sg15
I700
sg16
g919
sg17
g919
sg18
g912
sg20
g921
sbag1
(g8
g3
NtRp1095
(dp1096
g11
g919
sg13
S'Helvetica'
p1097
sg15
I500
sg16
g919
sg17
g919
sg18
g913
sg20
g921
sbag1
(g8
g3
NtRp1098
(dp1099
g11
g919
sg13
S'Helvetica'
p1100
sg15
I700
sg16
g919
sg17
g919
sg18
g914
sg20
g921
sbasb.